target datalayout = "e-m:e-p270:32:32-p271:32:32-p272:64:64-i64:64-i128:128-f80:128-n8:16:32:64-S128"
target triple = "x86_64-unknown-linux-gnu"

%"struct.ClipperLib::IntPoint" = type { i64, i64 }
%"struct.ClipperLib::TEdge" = type { %"struct.ClipperLib::IntPoint", %"struct.ClipperLib::IntPoint", %"struct.ClipperLib::IntPoint", double, i32, i32, i32, i32, i32, i32, ptr, ptr, ptr, ptr, ptr, ptr, ptr }
%"class.__gnu_cxx::__normal_iterator" = type { ptr }
%"class.ClipperLib::ClipperBase" = type { ptr, %"class.__gnu_cxx::__normal_iterator", %"class.std::vector.5", i8, %"class.std::vector.10", i8, i8, %"class.std::vector.15", ptr, %"class.std::priority_queue" }
%"class.std::vector.5" = type { %"struct.std::_Vector_base.6" }
%"struct.std::_Vector_base.6" = type { %"struct.std::_Vector_base<ClipperLib::LocalMinimum, std::allocator<ClipperLib::LocalMinimum>>::_Vector_impl" }
%"struct.std::_Vector_base<ClipperLib::LocalMinimum, std::allocator<ClipperLib::LocalMinimum>>::_Vector_impl" = type { %"struct.std::_Vector_base<ClipperLib::LocalMinimum, std::allocator<ClipperLib::LocalMinimum>>::_Vector_impl_data" }
%"struct.std::_Vector_base<ClipperLib::LocalMinimum, std::allocator<ClipperLib::LocalMinimum>>::_Vector_impl_data" = type { ptr, ptr, ptr }
%"class.std::vector.10" = type { %"struct.std::_Vector_base.11" }
%"struct.std::_Vector_base.11" = type { %"struct.std::_Vector_base<ClipperLib::TEdge *, std::allocator<ClipperLib::TEdge *>>::_Vector_impl" }
%"struct.std::_Vector_base<ClipperLib::TEdge *, std::allocator<ClipperLib::TEdge *>>::_Vector_impl" = type { %"struct.std::_Vector_base<ClipperLib::TEdge *, std::allocator<ClipperLib::TEdge *>>::_Vector_impl_data" }
%"struct.std::_Vector_base<ClipperLib::TEdge *, std::allocator<ClipperLib::TEdge *>>::_Vector_impl_data" = type { ptr, ptr, ptr }
%"class.std::vector.15" = type { %"struct.std::_Vector_base.16" }
%"struct.std::_Vector_base.16" = type { %"struct.std::_Vector_base<ClipperLib::OutRec *, std::allocator<ClipperLib::OutRec *>>::_Vector_impl" }
%"struct.std::_Vector_base<ClipperLib::OutRec *, std::allocator<ClipperLib::OutRec *>>::_Vector_impl" = type { %"struct.std::_Vector_base<ClipperLib::OutRec *, std::allocator<ClipperLib::OutRec *>>::_Vector_impl_data" }
%"struct.std::_Vector_base<ClipperLib::OutRec *, std::allocator<ClipperLib::OutRec *>>::_Vector_impl_data" = type { ptr, ptr, ptr }
%"class.std::priority_queue" = type <{ %"class.std::vector.20", %"struct.std::less", [7 x i8] }>
%"class.std::vector.20" = type { %"struct.std::_Vector_base.21" }
%"struct.std::_Vector_base.21" = type { %"struct.std::_Vector_base<long long, std::allocator<long long>>::_Vector_impl" }
%"struct.std::_Vector_base<long long, std::allocator<long long>>::_Vector_impl" = type { %"struct.std::_Vector_base<long long, std::allocator<long long>>::_Vector_impl_data" }
%"struct.std::_Vector_base<long long, std::allocator<long long>>::_Vector_impl_data" = type { ptr, ptr, ptr }
%"struct.std::less" = type { i8 }
%"class.ClipperLib::Clipper" = type <{ ptr, %"class.std::vector.33", %"class.std::vector.33", %"class.std::vector.38", i32, [4 x i8], %"class.std::__cxx11::list", ptr, i8, [3 x i8], i32, i32, i8, i8, i8, i8, %"class.ClipperLib::ClipperBase" }>
%"class.std::vector.33" = type { %"struct.std::_Vector_base.34" }
%"struct.std::_Vector_base.34" = type { %"struct.std::_Vector_base<ClipperLib::Join *, std::allocator<ClipperLib::Join *>>::_Vector_impl" }
%"struct.std::_Vector_base<ClipperLib::Join *, std::allocator<ClipperLib::Join *>>::_Vector_impl" = type { %"struct.std::_Vector_base<ClipperLib::Join *, std::allocator<ClipperLib::Join *>>::_Vector_impl_data" }
%"struct.std::_Vector_base<ClipperLib::Join *, std::allocator<ClipperLib::Join *>>::_Vector_impl_data" = type { ptr, ptr, ptr }
%"class.std::vector.38" = type { %"struct.std::_Vector_base.39" }
%"struct.std::_Vector_base.39" = type { %"struct.std::_Vector_base<ClipperLib::IntersectNode *, std::allocator<ClipperLib::IntersectNode *>>::_Vector_impl" }
%"struct.std::_Vector_base<ClipperLib::IntersectNode *, std::allocator<ClipperLib::IntersectNode *>>::_Vector_impl" = type { %"struct.std::_Vector_base<ClipperLib::IntersectNode *, std::allocator<ClipperLib::IntersectNode *>>::_Vector_impl_data" }
%"struct.std::_Vector_base<ClipperLib::IntersectNode *, std::allocator<ClipperLib::IntersectNode *>>::_Vector_impl_data" = type { ptr, ptr, ptr }
%"class.std::__cxx11::list" = type { %"class.std::__cxx11::_List_base" }
%"class.std::__cxx11::_List_base" = type { %"struct.std::__cxx11::_List_base<long long, std::allocator<long long>>::_List_impl" }
%"struct.std::__cxx11::_List_base<long long, std::allocator<long long>>::_List_impl" = type { %"struct.std::__detail::_List_node_header" }
%"struct.std::__detail::_List_node_header" = type { %"struct.std::__detail::_List_node_base", i64 }
%"struct.std::__detail::_List_node_base" = type { ptr, ptr }

; Function Attrs: mustprogress nounwind uwtable
define hidden void @_ZN10ClipperLib7Clipper18SwapPositionsInSELEPNS_5TEdgeES2_(ptr noundef nonnull align 8 dereferenceable(135) %this, ptr noundef %Edge1, ptr noundef %Edge2) #1 align 2 {
entry:
  %this.addr = alloca ptr, align 8
  %Edge1.addr = alloca ptr, align 8
  %Edge2.addr = alloca ptr, align 8
  %Next = alloca ptr, align 8
  %Prev = alloca ptr, align 8
  %Next29 = alloca ptr, align 8
  %Prev35 = alloca ptr, align 8
  %Next46 = alloca ptr, align 8
  %Prev48 = alloca ptr, align 8
  store ptr %this, ptr %this.addr, align 8
  store ptr %Edge1, ptr %Edge1.addr, align 8
  store ptr %Edge2, ptr %Edge2.addr, align 8
  %this1 = load ptr, ptr %this.addr, align 8
  %0 = load ptr, ptr %Edge1.addr, align 8
  %NextInSEL = getelementptr inbounds %"struct.ClipperLib::TEdge", ptr %0, i32 0, i32 15
  %1 = load ptr, ptr %NextInSEL, align 8
  %tobool = icmp ne ptr %1, null
  br i1 %tobool, label %if.end, label %land.lhs.true

land.lhs.true:                                    ; preds = %entry
  %2 = load ptr, ptr %Edge1.addr, align 8
  %PrevInSEL = getelementptr inbounds %"struct.ClipperLib::TEdge", ptr %2, i32 0, i32 16
  %3 = load ptr, ptr %PrevInSEL, align 8
  %tobool2 = icmp ne ptr %3, null
  br i1 %tobool2, label %if.end, label %if.then

if.then:                                          ; preds = %land.lhs.true
  br label %if.end91

if.end:                                           ; preds = %land.lhs.true, %entry
  %4 = load ptr, ptr %Edge2.addr, align 8
  %NextInSEL3 = getelementptr inbounds %"struct.ClipperLib::TEdge", ptr %4, i32 0, i32 15
  %5 = load ptr, ptr %NextInSEL3, align 8
  %tobool4 = icmp ne ptr %5, null
  br i1 %tobool4, label %if.end9, label %land.lhs.true5

land.lhs.true5:                                   ; preds = %if.end
  %6 = load ptr, ptr %Edge2.addr, align 8
  %PrevInSEL6 = getelementptr inbounds %"struct.ClipperLib::TEdge", ptr %6, i32 0, i32 16
  %7 = load ptr, ptr %PrevInSEL6, align 8
  %tobool7 = icmp ne ptr %7, null
  br i1 %tobool7, label %if.end9, label %if.then8

if.then8:                                         ; preds = %land.lhs.true5
  br label %if.end91

if.end9:                                          ; preds = %land.lhs.true5, %if.end
  %8 = load ptr, ptr %Edge1.addr, align 8
  %NextInSEL10 = getelementptr inbounds %"struct.ClipperLib::TEdge", ptr %8, i32 0, i32 15
  %9 = load ptr, ptr %NextInSEL10, align 8
  %10 = load ptr, ptr %Edge2.addr, align 8
  %cmp = icmp eq ptr %9, %10
  br i1 %cmp, label %if.then11, label %if.else

if.then11:                                        ; preds = %if.end9
  %11 = load ptr, ptr %Edge2.addr, align 8
  %NextInSEL12 = getelementptr inbounds %"struct.ClipperLib::TEdge", ptr %11, i32 0, i32 15
  %12 = load ptr, ptr %NextInSEL12, align 8
  store ptr %12, ptr %Next, align 8
  %13 = load ptr, ptr %Next, align 8
  %tobool13 = icmp ne ptr %13, null
  br i1 %tobool13, label %if.then14, label %if.end16

if.then14:                                        ; preds = %if.then11
  %14 = load ptr, ptr %Edge1.addr, align 8
  %15 = load ptr, ptr %Next, align 8
  %PrevInSEL15 = getelementptr inbounds %"struct.ClipperLib::TEdge", ptr %15, i32 0, i32 16
  store ptr %14, ptr %PrevInSEL15, align 8
  br label %if.end16

if.end16:                                         ; preds = %if.then14, %if.then11
  %16 = load ptr, ptr %Edge1.addr, align 8
  %PrevInSEL17 = getelementptr inbounds %"struct.ClipperLib::TEdge", ptr %16, i32 0, i32 16
  %17 = load ptr, ptr %PrevInSEL17, align 8
  store ptr %17, ptr %Prev, align 8
  %18 = load ptr, ptr %Prev, align 8
  %tobool18 = icmp ne ptr %18, null
  br i1 %tobool18, label %if.then19, label %if.end21

if.then19:                                        ; preds = %if.end16
  %19 = load ptr, ptr %Edge2.addr, align 8
  %20 = load ptr, ptr %Prev, align 8
  %NextInSEL20 = getelementptr inbounds %"struct.ClipperLib::TEdge", ptr %20, i32 0, i32 15
  store ptr %19, ptr %NextInSEL20, align 8
  br label %if.end21

if.end21:                                         ; preds = %if.then19, %if.end16
  %21 = load ptr, ptr %Prev, align 8
  %22 = load ptr, ptr %Edge2.addr, align 8
  %PrevInSEL22 = getelementptr inbounds %"struct.ClipperLib::TEdge", ptr %22, i32 0, i32 16
  store ptr %21, ptr %PrevInSEL22, align 8
  %23 = load ptr, ptr %Edge1.addr, align 8
  %24 = load ptr, ptr %Edge2.addr, align 8
  %NextInSEL23 = getelementptr inbounds %"struct.ClipperLib::TEdge", ptr %24, i32 0, i32 15
  store ptr %23, ptr %NextInSEL23, align 8
  %25 = load ptr, ptr %Edge2.addr, align 8
  %26 = load ptr, ptr %Edge1.addr, align 8
  %PrevInSEL24 = getelementptr inbounds %"struct.ClipperLib::TEdge", ptr %26, i32 0, i32 16
  store ptr %25, ptr %PrevInSEL24, align 8
  %27 = load ptr, ptr %Next, align 8
  %28 = load ptr, ptr %Edge1.addr, align 8
  %NextInSEL25 = getelementptr inbounds %"struct.ClipperLib::TEdge", ptr %28, i32 0, i32 15
  store ptr %27, ptr %NextInSEL25, align 8
  br label %if.end81

if.else:                                          ; preds = %if.end9
  %29 = load ptr, ptr %Edge2.addr, align 8
  %NextInSEL26 = getelementptr inbounds %"struct.ClipperLib::TEdge", ptr %29, i32 0, i32 15
  %30 = load ptr, ptr %NextInSEL26, align 8
  %31 = load ptr, ptr %Edge1.addr, align 8
  %cmp27 = icmp eq ptr %30, %31
  br i1 %cmp27, label %if.then28, label %if.else45

if.then28:                                        ; preds = %if.else
  %32 = load ptr, ptr %Edge1.addr, align 8
  %NextInSEL30 = getelementptr inbounds %"struct.ClipperLib::TEdge", ptr %32, i32 0, i32 15
  %33 = load ptr, ptr %NextInSEL30, align 8
  store ptr %33, ptr %Next29, align 8
  %34 = load ptr, ptr %Next29, align 8
  %tobool31 = icmp ne ptr %34, null
  br i1 %tobool31, label %if.then32, label %if.end34

if.then32:                                        ; preds = %if.then28
  %35 = load ptr, ptr %Edge2.addr, align 8
  %36 = load ptr, ptr %Next29, align 8
  %PrevInSEL33 = getelementptr inbounds %"struct.ClipperLib::TEdge", ptr %36, i32 0, i32 16
  store ptr %35, ptr %PrevInSEL33, align 8
  br label %if.end34

if.end34:                                         ; preds = %if.then32, %if.then28
  %37 = load ptr, ptr %Edge2.addr, align 8
  %PrevInSEL36 = getelementptr inbounds %"struct.ClipperLib::TEdge", ptr %37, i32 0, i32 16
  %38 = load ptr, ptr %PrevInSEL36, align 8
  store ptr %38, ptr %Prev35, align 8
  %39 = load ptr, ptr %Prev35, align 8
  %tobool37 = icmp ne ptr %39, null
  br i1 %tobool37, label %if.then38, label %if.end40

if.then38:                                        ; preds = %if.end34
  %40 = load ptr, ptr %Edge1.addr, align 8
  %41 = load ptr, ptr %Prev35, align 8
  %NextInSEL39 = getelementptr inbounds %"struct.ClipperLib::TEdge", ptr %41, i32 0, i32 15
  store ptr %40, ptr %NextInSEL39, align 8
  br label %if.end40

if.end40:                                         ; preds = %if.then38, %if.end34
  %42 = load ptr, ptr %Prev35, align 8
  %43 = load ptr, ptr %Edge1.addr, align 8
  %PrevInSEL41 = getelementptr inbounds %"struct.ClipperLib::TEdge", ptr %43, i32 0, i32 16
  store ptr %42, ptr %PrevInSEL41, align 8
  %44 = load ptr, ptr %Edge2.addr, align 8
  %45 = load ptr, ptr %Edge1.addr, align 8
  %NextInSEL42 = getelementptr inbounds %"struct.ClipperLib::TEdge", ptr %45, i32 0, i32 15
  store ptr %44, ptr %NextInSEL42, align 8
  %46 = load ptr, ptr %Edge1.addr, align 8
  %47 = load ptr, ptr %Edge2.addr, align 8
  %PrevInSEL43 = getelementptr inbounds %"struct.ClipperLib::TEdge", ptr %47, i32 0, i32 16
  store ptr %46, ptr %PrevInSEL43, align 8
  %48 = load ptr, ptr %Next29, align 8
  %49 = load ptr, ptr %Edge2.addr, align 8
  %NextInSEL44 = getelementptr inbounds %"struct.ClipperLib::TEdge", ptr %49, i32 0, i32 15
  store ptr %48, ptr %NextInSEL44, align 8
  br label %if.end80

if.else45:                                        ; preds = %if.else
  %50 = load ptr, ptr %Edge1.addr, align 8
  %NextInSEL47 = getelementptr inbounds %"struct.ClipperLib::TEdge", ptr %50, i32 0, i32 15
  %51 = load ptr, ptr %NextInSEL47, align 8
  store ptr %51, ptr %Next46, align 8
  %52 = load ptr, ptr %Edge1.addr, align 8
  %PrevInSEL49 = getelementptr inbounds %"struct.ClipperLib::TEdge", ptr %52, i32 0, i32 16
  %53 = load ptr, ptr %PrevInSEL49, align 8
  store ptr %53, ptr %Prev48, align 8
  %54 = load ptr, ptr %Edge2.addr, align 8
  %NextInSEL50 = getelementptr inbounds %"struct.ClipperLib::TEdge", ptr %54, i32 0, i32 15
  %55 = load ptr, ptr %NextInSEL50, align 8
  %56 = load ptr, ptr %Edge1.addr, align 8
  %NextInSEL51 = getelementptr inbounds %"struct.ClipperLib::TEdge", ptr %56, i32 0, i32 15
  store ptr %55, ptr %NextInSEL51, align 8
  %57 = load ptr, ptr %Edge1.addr, align 8
  %NextInSEL52 = getelementptr inbounds %"struct.ClipperLib::TEdge", ptr %57, i32 0, i32 15
  %58 = load ptr, ptr %NextInSEL52, align 8
  %tobool53 = icmp ne ptr %58, null
  br i1 %tobool53, label %if.then54, label %if.end57

if.then54:                                        ; preds = %if.else45
  %59 = load ptr, ptr %Edge1.addr, align 8
  %60 = load ptr, ptr %Edge1.addr, align 8
  %NextInSEL55 = getelementptr inbounds %"struct.ClipperLib::TEdge", ptr %60, i32 0, i32 15
  %61 = load ptr, ptr %NextInSEL55, align 8
  %PrevInSEL56 = getelementptr inbounds %"struct.ClipperLib::TEdge", ptr %61, i32 0, i32 16
  store ptr %59, ptr %PrevInSEL56, align 8
  br label %if.end57

if.end57:                                         ; preds = %if.then54, %if.else45
  %62 = load ptr, ptr %Edge2.addr, align 8
  %PrevInSEL58 = getelementptr inbounds %"struct.ClipperLib::TEdge", ptr %62, i32 0, i32 16
  %63 = load ptr, ptr %PrevInSEL58, align 8
  %64 = load ptr, ptr %Edge1.addr, align 8
  %PrevInSEL59 = getelementptr inbounds %"struct.ClipperLib::TEdge", ptr %64, i32 0, i32 16
  store ptr %63, ptr %PrevInSEL59, align 8
  %65 = load ptr, ptr %Edge1.addr, align 8
  %PrevInSEL60 = getelementptr inbounds %"struct.ClipperLib::TEdge", ptr %65, i32 0, i32 16
  %66 = load ptr, ptr %PrevInSEL60, align 8
  %tobool61 = icmp ne ptr %66, null
  br i1 %tobool61, label %if.then62, label %if.end65

if.then62:                                        ; preds = %if.end57
  %67 = load ptr, ptr %Edge1.addr, align 8
  %68 = load ptr, ptr %Edge1.addr, align 8
  %PrevInSEL63 = getelementptr inbounds %"struct.ClipperLib::TEdge", ptr %68, i32 0, i32 16
  %69 = load ptr, ptr %PrevInSEL63, align 8
  %NextInSEL64 = getelementptr inbounds %"struct.ClipperLib::TEdge", ptr %69, i32 0, i32 15
  store ptr %67, ptr %NextInSEL64, align 8
  br label %if.end65

if.end65:                                         ; preds = %if.then62, %if.end57
  %70 = load ptr, ptr %Next46, align 8
  %71 = load ptr, ptr %Edge2.addr, align 8
  %NextInSEL66 = getelementptr inbounds %"struct.ClipperLib::TEdge", ptr %71, i32 0, i32 15
  store ptr %70, ptr %NextInSEL66, align 8
  %72 = load ptr, ptr %Edge2.addr, align 8
  %NextInSEL67 = getelementptr inbounds %"struct.ClipperLib::TEdge", ptr %72, i32 0, i32 15
  %73 = load ptr, ptr %NextInSEL67, align 8
  %tobool68 = icmp ne ptr %73, null
  br i1 %tobool68, label %if.then69, label %if.end72

if.then69:                                        ; preds = %if.end65
  %74 = load ptr, ptr %Edge2.addr, align 8
  %75 = load ptr, ptr %Edge2.addr, align 8
  %NextInSEL70 = getelementptr inbounds %"struct.ClipperLib::TEdge", ptr %75, i32 0, i32 15
  %76 = load ptr, ptr %NextInSEL70, align 8
  %PrevInSEL71 = getelementptr inbounds %"struct.ClipperLib::TEdge", ptr %76, i32 0, i32 16
  store ptr %74, ptr %PrevInSEL71, align 8
  br label %if.end72

if.end72:                                         ; preds = %if.then69, %if.end65
  %77 = load ptr, ptr %Prev48, align 8
  %78 = load ptr, ptr %Edge2.addr, align 8
  %PrevInSEL73 = getelementptr inbounds %"struct.ClipperLib::TEdge", ptr %78, i32 0, i32 16
  store ptr %77, ptr %PrevInSEL73, align 8
  %79 = load ptr, ptr %Edge2.addr, align 8
  %PrevInSEL74 = getelementptr inbounds %"struct.ClipperLib::TEdge", ptr %79, i32 0, i32 16
  %80 = load ptr, ptr %PrevInSEL74, align 8
  %tobool75 = icmp ne ptr %80, null
  br i1 %tobool75, label %if.then76, label %if.end79

if.then76:                                        ; preds = %if.end72
  %81 = load ptr, ptr %Edge2.addr, align 8
  %82 = load ptr, ptr %Edge2.addr, align 8
  %PrevInSEL77 = getelementptr inbounds %"struct.ClipperLib::TEdge", ptr %82, i32 0, i32 16
  %83 = load ptr, ptr %PrevInSEL77, align 8
  %NextInSEL78 = getelementptr inbounds %"struct.ClipperLib::TEdge", ptr %83, i32 0, i32 15
  store ptr %81, ptr %NextInSEL78, align 8
  br label %if.end79

if.end79:                                         ; preds = %if.then76, %if.end72
  br label %if.end80

if.end80:                                         ; preds = %if.end79, %if.end40
  br label %if.end81

if.end81:                                         ; preds = %if.end80, %if.end21
  %84 = load ptr, ptr %Edge1.addr, align 8
  %PrevInSEL82 = getelementptr inbounds %"struct.ClipperLib::TEdge", ptr %84, i32 0, i32 16
  %85 = load ptr, ptr %PrevInSEL82, align 8
  %tobool83 = icmp ne ptr %85, null
  br i1 %tobool83, label %if.else85, label %if.then84

if.then84:                                        ; preds = %if.end81
  %86 = load ptr, ptr %Edge1.addr, align 8
  %m_SortedEdges = getelementptr inbounds %"class.ClipperLib::Clipper", ptr %this1, i32 0, i32 7
  store ptr %86, ptr %m_SortedEdges, align 8
  br label %if.end91

if.else85:                                        ; preds = %if.end81
  %87 = load ptr, ptr %Edge2.addr, align 8
  %PrevInSEL86 = getelementptr inbounds %"struct.ClipperLib::TEdge", ptr %87, i32 0, i32 16
  %88 = load ptr, ptr %PrevInSEL86, align 8
  %tobool87 = icmp ne ptr %88, null
  br i1 %tobool87, label %if.end90, label %if.then88

if.then88:                                        ; preds = %if.else85
  %89 = load ptr, ptr %Edge2.addr, align 8
  %m_SortedEdges89 = getelementptr inbounds %"class.ClipperLib::Clipper", ptr %this1, i32 0, i32 7
  store ptr %89, ptr %m_SortedEdges89, align 8
  br label %if.end90

if.end90:                                         ; preds = %if.then88, %if.else85
  br label %if.end91

if.end91:                                         ; preds = %if.end90, %if.then84, %if.then8, %if.then
  ret void
}