; Function Attrs: mustprogress nofree norecurse nosync nounwind willreturn memory(write, argmem: readwrite, inaccessiblemem: none) uwtable
define hidden void @_ZN10ClipperLib7Clipper18SwapPositionsInSELEPNS_5TEdgeES2_(ptr nocapture noundef nonnull writeonly align 8 dereferenceable(135) %this, ptr noundef %Edge1, ptr noundef %Edge2) local_unnamed_addr #12 align 2 {
entry:
  %NextInSEL = getelementptr inbounds i8, ptr %Edge1, i64 120
  %0 = load ptr, ptr %NextInSEL, align 8
  %tobool.not = icmp eq ptr %0, null
  br i1 %tobool.not, label %land.lhs.true, label %if.end

land.lhs.true:                                    ; preds = %entry
  %PrevInSEL = getelementptr inbounds i8, ptr %Edge1, i64 128
  %1 = load ptr, ptr %PrevInSEL, align 8
  %tobool2.not = icmp eq ptr %1, null
  br i1 %tobool2.not, label %if.end91, label %if.end

if.end:                                           ; preds = %land.lhs.true, %entry
  %NextInSEL3 = getelementptr inbounds i8, ptr %Edge2, i64 120
  %2 = load ptr, ptr %NextInSEL3, align 8
  %tobool4.not = icmp eq ptr %2, null
  br i1 %tobool4.not, label %land.lhs.true5, label %if.end9.thread

land.lhs.true5:                                   ; preds = %if.end
  %PrevInSEL6 = getelementptr inbounds i8, ptr %Edge2, i64 128
  %3 = load ptr, ptr %PrevInSEL6, align 8
  %tobool7.not = icmp eq ptr %3, null
  br i1 %tobool7.not, label %if.end91, label %if.end9

if.end9:                                          ; preds = %land.lhs.true5
  %cmp = icmp eq ptr %0, %Edge2
  br i1 %cmp, label %if.end16, label %if.else45

if.end9.thread:                                   ; preds = %if.end
  %cmp65 = icmp eq ptr %0, %Edge2
  br i1 %cmp65, label %if.then14, label %if.else.thread

if.then14:                                        ; preds = %if.end9.thread
  %PrevInSEL15 = getelementptr inbounds i8, ptr %2, i64 128
  store ptr %Edge1, ptr %PrevInSEL15, align 8
  br label %if.end16

if.end16:                                         ; preds = %if.end9, %if.then14
  %PrevInSEL17 = getelementptr inbounds i8, ptr %Edge1, i64 128
  %4 = load ptr, ptr %PrevInSEL17, align 8
  %tobool18.not = icmp eq ptr %4, null
  br i1 %tobool18.not, label %if.end21, label %if.then19

if.then19:                                        ; preds = %if.end16
  %NextInSEL20 = getelementptr inbounds i8, ptr %4, i64 120
  store ptr %Edge2, ptr %NextInSEL20, align 8
  br label %if.end21

if.end21:                                         ; preds = %if.then19, %if.end16
  %PrevInSEL22 = getelementptr inbounds i8, ptr %Edge2, i64 128
  store ptr %4, ptr %PrevInSEL22, align 8
  store ptr %Edge1, ptr %NextInSEL3, align 8
  store ptr %Edge2, ptr %PrevInSEL17, align 8
  store ptr %2, ptr %NextInSEL, align 8
  br label %if.end81

if.else.thread:                                   ; preds = %if.end9.thread
  %cmp2766 = icmp eq ptr %2, %Edge1
  br i1 %cmp2766, label %if.then28, label %if.else45.thread

if.else45.thread:                                 ; preds = %if.else.thread
  %PrevInSEL4967 = getelementptr inbounds i8, ptr %Edge1, i64 128
  %5 = load ptr, ptr %PrevInSEL4967, align 8
  store ptr %2, ptr %NextInSEL, align 8
  %PrevInSEL56 = getelementptr inbounds i8, ptr %2, i64 128
  store ptr %Edge1, ptr %PrevInSEL56, align 8
  br label %if.end57

if.then28:                                        ; preds = %if.else.thread
  br i1 %tobool.not, label %if.end34, label %if.then32

if.then32:                                        ; preds = %if.then28
  %PrevInSEL33 = getelementptr inbounds i8, ptr %0, i64 128
  store ptr %Edge2, ptr %PrevInSEL33, align 8
  br label %if.end34

if.end34:                                         ; preds = %if.then32, %if.then28
  %PrevInSEL36 = getelementptr inbounds i8, ptr %Edge2, i64 128
  %6 = load ptr, ptr %PrevInSEL36, align 8
  %tobool37.not = icmp eq ptr %6, null
  br i1 %tobool37.not, label %if.end40, label %if.then38

if.then38:                                        ; preds = %if.end34
  %NextInSEL39 = getelementptr inbounds i8, ptr %6, i64 120
  store ptr %Edge1, ptr %NextInSEL39, align 8
  br label %if.end40

if.end40:                                         ; preds = %if.then38, %if.end34
  %PrevInSEL41 = getelementptr inbounds i8, ptr %Edge1, i64 128
  store ptr %6, ptr %PrevInSEL41, align 8
  store ptr %Edge2, ptr %NextInSEL, align 8
  store ptr %Edge1, ptr %PrevInSEL36, align 8
  store ptr %0, ptr %NextInSEL3, align 8
  br label %if.end81

if.else45:                                        ; preds = %if.end9
  %PrevInSEL49 = getelementptr inbounds i8, ptr %Edge1, i64 128
  %7 = load ptr, ptr %PrevInSEL49, align 8
  store ptr null, ptr %NextInSEL, align 8
  br label %if.end57

if.end57:                                         ; preds = %if.else45, %if.else45.thread
  %8 = phi ptr [ %5, %if.else45.thread ], [ %7, %if.else45 ]
  %PrevInSEL4969 = phi ptr [ %PrevInSEL4967, %if.else45.thread ], [ %PrevInSEL49, %if.else45 ]
  %PrevInSEL58 = getelementptr inbounds i8, ptr %Edge2, i64 128
  %9 = load ptr, ptr %PrevInSEL58, align 8
  store ptr %9, ptr %PrevInSEL4969, align 8
  %tobool61.not = icmp eq ptr %9, null
  br i1 %tobool61.not, label %if.end65, label %if.then62

if.then62:                                        ; preds = %if.end57
  %NextInSEL64 = getelementptr inbounds i8, ptr %9, i64 120
  store ptr %Edge1, ptr %NextInSEL64, align 8
  br label %if.end65

if.end65:                                         ; preds = %if.then62, %if.end57
  store ptr %0, ptr %NextInSEL3, align 8
  br i1 %tobool.not, label %if.end72, label %if.then69

if.then69:                                        ; preds = %if.end65
  %PrevInSEL71 = getelementptr inbounds i8, ptr %0, i64 128
  store ptr %Edge2, ptr %PrevInSEL71, align 8
  br label %if.end72

if.end72:                                         ; preds = %if.then69, %if.end65
  store ptr %8, ptr %PrevInSEL58, align 8
  %tobool75.not = icmp eq ptr %8, null
  br i1 %tobool75.not, label %if.end81, label %if.then76

if.then76:                                        ; preds = %if.end72
  %NextInSEL78 = getelementptr inbounds i8, ptr %8, i64 120
  store ptr %Edge2, ptr %NextInSEL78, align 8
  br label %if.end81

if.end81:                                         ; preds = %if.end40, %if.then76, %if.end72, %if.end21
  %PrevInSEL82 = getelementptr inbounds i8, ptr %Edge1, i64 128
  %10 = load ptr, ptr %PrevInSEL82, align 8
  %tobool83.not = icmp eq ptr %10, null
  br i1 %tobool83.not, label %if.end91.sink.split, label %if.else85

if.else85:                                        ; preds = %if.end81
  %PrevInSEL86 = getelementptr inbounds i8, ptr %Edge2, i64 128
  %11 = load ptr, ptr %PrevInSEL86, align 8
  %tobool87.not = icmp eq ptr %11, null
  br i1 %tobool87.not, label %if.end91.sink.split, label %if.end91

if.end91.sink.split:                              ; preds = %if.else85, %if.end81
  %Edge2.sink = phi ptr [ %Edge1, %if.end81 ], [ %Edge2, %if.else85 ]
  %m_SortedEdges89 = getelementptr inbounds i8, ptr %this, i64 112
  store ptr %Edge2.sink, ptr %m_SortedEdges89, align 8
  br label %if.end91

if.end91:                                         ; preds = %if.end91.sink.split, %if.else85, %land.lhs.true5, %land.lhs.true
  ret void
}